; Function Attrs: nounwind uwtable
define ptr @l_ReaderT_tryFinally___rarg(ptr noundef %0, ptr readnone captures(none) %1, ptr readnone captures(none) %2, ptr noundef %3, ptr noundef %4, ptr noundef %5) #0 {
  %7 = ptrtoint ptr %5 to i64
  %8 = and i64 %7, 1
  %.not = icmp eq i64 %8, 0
  br i1 %.not, label %9, label %lean_inc.exit

9:                                                ; preds = %6
  %.val.i = load i32, ptr %5, align 4, !tbaa !4
  %10 = icmp sgt i32 %.val.i, 0
  br i1 %10, label %11, label %13, !prof !9

11:                                               ; preds = %9
  %12 = add nuw i32 %.val.i, 1
  store i32 %12, ptr %5, align 4, !tbaa !4
  br label %lean_inc.exit

13:                                               ; preds = %9
  %.not.i = icmp eq i32 %.val.i, 0
  br i1 %.not.i, label %lean_inc.exit, label %14

14:                                               ; preds = %13
  tail call void @lean_inc_ref_cold(ptr noundef nonnull %5) #4
  br label %lean_inc.exit

lean_inc.exit:                                    ; preds = %14, %13, %11, %6
  %15 = tail call ptr @lean_apply_1(ptr noundef %3, ptr noundef %5) #4
  tail call void @lean_inc_heartbeat() #4
  %16 = tail call noalias ptr @mi_malloc_small(i64 noundef 40) #4
  %17 = icmp eq ptr %16, null
  br i1 %17, label %18, label %lean_alloc_closure.exit

18:                                               ; preds = %lean_inc.exit
  tail call void @lean_internal_panic_out_of_memory() #5
  unreachable

lean_alloc_closure.exit:                          ; preds = %lean_inc.exit
  %19 = getelementptr inbounds nuw i8, ptr %16, i64 4
  store i32 1, ptr %16, align 4, !tbaa !4
  store i32 -184549336, ptr %19, align 4
  %20 = getelementptr inbounds nuw i8, ptr %16, i64 8
  store ptr @l_ReaderT_tryFinally___rarg___lambda__1, ptr %20, align 8, !tbaa !10
  %21 = getelementptr inbounds nuw i8, ptr %16, i64 16
  store i16 3, ptr %21, align 8, !tbaa !12
  %22 = getelementptr inbounds nuw i8, ptr %16, i64 18
  store i16 2, ptr %22, align 2, !tbaa !12
  %23 = getelementptr inbounds nuw i8, ptr %16, i64 24
  store ptr %4, ptr %23, align 8, !tbaa !10
  %24 = getelementptr inbounds nuw i8, ptr %16, i64 32
  store ptr %5, ptr %24, align 8, !tbaa !10
  %25 = tail call ptr @lean_apply_4(ptr noundef %0, ptr noundef nonnull inttoptr (i64 1 to ptr), ptr noundef nonnull inttoptr (i64 1 to ptr), ptr noundef %15, ptr noundef nonnull %16) #4
  ret ptr %25
}